; Function Attrs: mustprogress noinline uwtable
define hidden noundef nonnull ptr @_ZN6google8protobuf8internal11SerialArena23AllocateAlignedFallbackEmPKNS1_16AllocationPolicyE(ptr noundef nonnull align 8 captures(none) dereferenceable(56) %0, i64 noundef %1, ptr noundef %2) local_unnamed_addr #5 align 2 personality ptr @__gxx_personality_v0 {
  %4 = getelementptr inbounds nuw i8, ptr %0, i64 48
  %5 = load ptr, ptr %4, align 8, !tbaa !23
  %6 = getelementptr inbounds nuw i8, ptr %0, i64 8
  %7 = load ptr, ptr %6, align 8, !tbaa !21
  %8 = getelementptr inbounds nuw i8, ptr %7, i64 16
  store ptr %5, ptr %8, align 8, !tbaa !12
  %9 = getelementptr inbounds nuw i8, ptr %0, i64 40
  %10 = load ptr, ptr %9, align 8, !tbaa !22
  %11 = getelementptr inbounds nuw i8, ptr %7, i64 24
  %12 = ptrtoint ptr %10 to i64
  %13 = ptrtoint ptr %11 to i64
  %14 = sub i64 %12, %13
  %15 = getelementptr inbounds nuw i8, ptr %0, i64 24
  %16 = load i64, ptr %15, align 8, !tbaa !13
  %17 = add i64 %14, %16
  store i64 %17, ptr %15, align 8, !tbaa !13
  %18 = getelementptr inbounds nuw i8, ptr %7, i64 8
  %19 = load i64, ptr %18, align 8, !tbaa !11
  %20 = tail call fastcc { ptr, i64 } @_ZN6google8protobuf8internalL14AllocateMemoryEPKNS1_16AllocationPolicyEmm(ptr noundef %2, i64 noundef %19, i64 noundef %1)
  %21 = extractvalue { ptr, i64 } %20, 0
  %22 = extractvalue { ptr, i64 } %20, 1
  %23 = getelementptr inbounds nuw i8, ptr %0, i64 32
  %24 = load atomic i64, ptr %23 monotonic, align 8
  %25 = add i64 %24, %22
  store atomic i64 %25, ptr %23 monotonic, align 8
  %26 = load ptr, ptr %6, align 8, !tbaa !21
  store ptr %26, ptr %21, align 8, !tbaa !3
  %27 = getelementptr inbounds nuw i8, ptr %21, i64 8
  store i64 %22, ptr %27, align 8, !tbaa !11
  %28 = getelementptr inbounds nuw i8, ptr %21, i64 16
  store ptr null, ptr %28, align 8, !tbaa !12
  store ptr %21, ptr %6, align 8, !tbaa !21
  %29 = getelementptr inbounds nuw i8, ptr %21, i64 24
  %30 = getelementptr inbounds nuw i8, ptr %21, i64 %22
  store ptr %30, ptr %4, align 8, !tbaa !23
  %31 = getelementptr inbounds nuw i8, ptr %29, i64 %1
  store ptr %31, ptr %9, align 8, !tbaa !22
  ret ptr %29
}